target datalayout = "e-m:e-p270:32:32-p271:32:32-p272:64:64-i64:64-i128:128-f80:128-n8:16:32:64-S128"
target triple = "x86_64-pc-linux-gnu"

; Function Attrs: nounwind uwtable
define ptr @sws_getCoefficients(i32 noundef %0) #0 {
  %2 = alloca i32, align 4
  store i32 %0, ptr %2, align 4, !tbaa !4
  %3 = load i32, ptr %2, align 4, !tbaa !4
  %4 = icmp sgt i32 %3, 10
  br i1 %4, label %11, label %5

5:                                                ; preds = %1
  %6 = load i32, ptr %2, align 4, !tbaa !4
  %7 = icmp slt i32 %6, 0
  br i1 %7, label %11, label %8

8:                                                ; preds = %5
  %9 = load i32, ptr %2, align 4, !tbaa !4
  %10 = icmp eq i32 %9, 8
  br i1 %10, label %11, label %12

11:                                               ; preds = %8, %5, %1
  store i32 5, ptr %2, align 4, !tbaa !4
  br label %12

12:                                               ; preds = %11, %8
  %13 = load i32, ptr %2, align 4, !tbaa !4
  %14 = sext i32 %13 to i64
  %15 = getelementptr inbounds [11 x [4 x i32]], ptr @ff_yuv2rgb_coeffs, i64 0, i64 %14
  %16 = getelementptr inbounds [4 x i32], ptr %15, i64 0, i64 0
  ret ptr %16
}