; Function Attrs: mustprogress nofree norecurse nosync nounwind willreturn memory(none) uwtable
define nonnull ptr @sws_getCoefficients(i32 noundef %0) local_unnamed_addr #0 {
  %or.cond = icmp ugt i32 %0, 10
  %2 = icmp eq i32 %0, 8
  %or.cond3 = or i1 %or.cond, %2
  %3 = zext nneg i32 %0 to i64
  %4 = select i1 %or.cond3, i64 5, i64 %3
  %5 = getelementptr inbounds nuw [11 x [4 x i32]], ptr @ff_yuv2rgb_coeffs, i64 0, i64 %4
  ret ptr %5
}